target datalayout = "e-m:e-p270:32:32-p271:32:32-p272:64:64-i64:64-i128:128-f80:128-n8:16:32:64-S128"
target triple = "x86_64-pc-linux-gnu"

%struct.SDL_DriverXbox360_Context = type { ptr, ptr, i32, i8, [64 x i8] }
%struct.SDL_HIDAPI_Device = type { ptr, ptr, ptr, ptr, i16, i16, i16, ptr, %struct.SDL_GUID, i32, i32, i32, i32, i16, i16, i8, i32, i32, i32, ptr, ptr, ptr, ptr, %struct.SDL_AtomicInt, i32, ptr, i8, i8, i8, ptr, i32, ptr, ptr }
%struct.SDL_GUID = type { [16 x i8] }
%struct.SDL_AtomicInt = type { i32 }

@.str.3 = private unnamed_addr constant [9 x i8] c"GamePad-\00", align 1
@.str.4 = private unnamed_addr constant [11 x i8] c"GamePad-%d\00", align 1

; Function Attrs: nounwind uwtable
define internal zeroext i1 @HIDAPI_DriverXbox360_InitDevice(ptr noundef %0) #0 {
  %2 = alloca i1, align 1
  %3 = alloca ptr, align 8
  %4 = alloca ptr, align 8
  %5 = alloca i32, align 4
  %6 = alloca i32, align 4
  store ptr %0, ptr %3, align 8
  call void @llvm.lifetime.start.p0(i64 8, ptr %4) #6
  %7 = call noalias ptr @SDL_calloc_REAL(i64 noundef 1, i64 noundef 88) #7
  store ptr %7, ptr %4, align 8
  %8 = load ptr, ptr %4, align 8
  %9 = icmp ne ptr %8, null
  br i1 %9, label %11, label %10

10:                                               ; preds = %1
  store i1 false, ptr %2, align 1
  store i32 1, ptr %5, align 4
  br label %53

11:                                               ; preds = %1
  %12 = load ptr, ptr %3, align 8
  %13 = load ptr, ptr %4, align 8
  %14 = getelementptr inbounds nuw %struct.SDL_DriverXbox360_Context, ptr %13, i32 0, i32 0
  store ptr %12, ptr %14, align 8
  %15 = load ptr, ptr %4, align 8
  %16 = load ptr, ptr %3, align 8
  %17 = getelementptr inbounds nuw %struct.SDL_HIDAPI_Device, ptr %16, i32 0, i32 20
  store ptr %15, ptr %17, align 8
  %18 = load ptr, ptr %3, align 8
  %19 = getelementptr inbounds nuw %struct.SDL_HIDAPI_Device, ptr %18, i32 0, i32 17
  store i32 2, ptr %19, align 4
  %20 = load ptr, ptr %3, align 8
  %21 = getelementptr inbounds nuw %struct.SDL_HIDAPI_Device, ptr %20, i32 0, i32 4
  %22 = load i16, ptr %21, align 8
  %23 = load ptr, ptr %3, align 8
  %24 = getelementptr inbounds nuw %struct.SDL_HIDAPI_Device, ptr %23, i32 0, i32 5
  %25 = load i16, ptr %24, align 2
  %26 = load ptr, ptr %3, align 8
  %27 = getelementptr inbounds nuw %struct.SDL_HIDAPI_Device, ptr %26, i32 0, i32 6
  %28 = load i16, ptr %27, align 4
  %29 = call zeroext i1 @SDL_IsJoystickSteamVirtualGamepad(i16 noundef zeroext %22, i16 noundef zeroext %25, i16 noundef zeroext %28)
  br i1 %29, label %30, label %50

30:                                               ; preds = %11
  %31 = load ptr, ptr %3, align 8
  %32 = getelementptr inbounds nuw %struct.SDL_HIDAPI_Device, ptr %31, i32 0, i32 2
  %33 = load ptr, ptr %32, align 8
  %34 = icmp ne ptr %33, null
  br i1 %34, label %35, label %50

35:                                               ; preds = %30
  %36 = load ptr, ptr %3, align 8
  %37 = getelementptr inbounds nuw %struct.SDL_HIDAPI_Device, ptr %36, i32 0, i32 2
  %38 = load ptr, ptr %37, align 8
  %39 = call i32 @SDL_strncmp_REAL(ptr noundef %38, ptr noundef @.str.3, i64 noundef 8)
  %40 = icmp eq i32 %39, 0
  br i1 %40, label %41, label %50

41:                                               ; preds = %35
  call void @llvm.lifetime.start.p0(i64 4, ptr %6) #6
  store i32 0, ptr %6, align 4
  %42 = load ptr, ptr %3, align 8
  %43 = getelementptr inbounds nuw %struct.SDL_HIDAPI_Device, ptr %42, i32 0, i32 2
  %44 = load ptr, ptr %43, align 8
  %45 = call i32 (ptr, ptr, ...) @SDL_sscanf_REAL(ptr noundef %44, ptr noundef @.str.4, ptr noundef %6)
  %46 = load i32, ptr %6, align 4
  %47 = sub nsw i32 %46, 1
  %48 = load ptr, ptr %3, align 8
  %49 = getelementptr inbounds nuw %struct.SDL_HIDAPI_Device, ptr %48, i32 0, i32 18
  store i32 %47, ptr %49, align 8
  call void @llvm.lifetime.end.p0(i64 4, ptr %6) #6
  br label %50

50:                                               ; preds = %41, %35, %30, %11
  %51 = load ptr, ptr %3, align 8
  %52 = call zeroext i1 @HIDAPI_JoystickConnected(ptr noundef %51, ptr noundef null)
  store i1 %52, ptr %2, align 1
  store i32 1, ptr %5, align 4
  br label %53

53:                                               ; preds = %50, %10
  call void @llvm.lifetime.end.p0(i64 8, ptr %4) #6
  %54 = load i1, ptr %2, align 1
  ret i1 %54
}