; Function Attrs: nounwind uwtable
define internal zeroext i1 @HIDAPI_DriverXbox360_InitDevice(ptr noundef %0) #0 {
  %2 = alloca i32, align 4
  %3 = tail call noalias dereferenceable_or_null(88) ptr @SDL_calloc_REAL(i64 noundef 1, i64 noundef 88) #10
  %.not = icmp eq ptr %3, null
  br i1 %.not, label %28, label %4

4:                                                ; preds = %1
  store ptr %0, ptr %3, align 8
  %5 = getelementptr inbounds nuw i8, ptr %0, i64 112
  store ptr %3, ptr %5, align 8
  %6 = getelementptr inbounds nuw i8, ptr %0, i64 92
  store i32 2, ptr %6, align 4
  %7 = getelementptr inbounds nuw i8, ptr %0, i64 32
  %8 = load i16, ptr %7, align 8
  %9 = getelementptr inbounds nuw i8, ptr %0, i64 34
  %10 = load i16, ptr %9, align 2
  %11 = getelementptr inbounds nuw i8, ptr %0, i64 36
  %12 = load i16, ptr %11, align 4
  %13 = tail call zeroext i1 @SDL_IsJoystickSteamVirtualGamepad(i16 noundef zeroext %8, i16 noundef zeroext %10, i16 noundef zeroext %12) #9
  br i1 %13, label %14, label %26

14:                                               ; preds = %4
  %15 = getelementptr inbounds nuw i8, ptr %0, i64 16
  %16 = load ptr, ptr %15, align 8
  %.not17 = icmp eq ptr %16, null
  br i1 %.not17, label %26, label %17

17:                                               ; preds = %14
  %18 = tail call i32 @SDL_strncmp_REAL(ptr noundef nonnull %16, ptr noundef nonnull @.str.3, i64 noundef 8) #9
  %19 = icmp eq i32 %18, 0
  br i1 %19, label %20, label %26

20:                                               ; preds = %17
  call void @llvm.lifetime.start.p0(i64 4, ptr nonnull %2) #9
  store i32 0, ptr %2, align 4
  %21 = load ptr, ptr %15, align 8
  %22 = call i32 (ptr, ptr, ...) @SDL_sscanf_REAL(ptr noundef %21, ptr noundef nonnull @.str.4, ptr noundef nonnull %2) #9
  %23 = load i32, ptr %2, align 4
  %24 = add nsw i32 %23, -1
  %25 = getelementptr inbounds nuw i8, ptr %0, i64 96
  store i32 %24, ptr %25, align 8
  call void @llvm.lifetime.end.p0(i64 4, ptr nonnull %2) #9
  br label %26

26:                                               ; preds = %20, %17, %14, %4
  %27 = call zeroext i1 @HIDAPI_JoystickConnected(ptr noundef nonnull %0, ptr noundef null) #9
  br label %28

28:                                               ; preds = %1, %26
  %.0 = phi i1 [ %27, %26 ], [ false, %1 ]
  ret i1 %.0
}